; Function Attrs: mustprogress nounwind uwtable
define internal void @_ZN12_GLOBAL__N_127InstrProfReaderNullRemapper10getRecordsEN4llvm9StringRefERNS1_8ArrayRefINS1_20NamedInstrProfRecordEEE(ptr dead_on_unwind noalias writable sret(%"class.llvm::Error") align 8 %0, ptr nocapture noundef nonnull readonly align 8 dereferenceable(16) %1, ptr %2, i64 %3, ptr noundef nonnull align 8 dereferenceable(16) %4) unnamed_addr #0 align 2 {
  %6 = getelementptr inbounds nuw i8, ptr %1, i64 8
  %7 = load ptr, ptr %6, align 8
  %8 = load ptr, ptr %7, align 8
  %9 = getelementptr inbounds i8, ptr %8, i64 24
  %10 = load ptr, ptr %9, align 8
  tail call void %10(ptr dead_on_unwind writable sret(%"class.llvm::Error") align 8 %0, ptr noundef nonnull align 8 dereferenceable(8) %7, ptr %2, i64 %3, ptr noundef nonnull align 8 dereferenceable(16) %4) #21
  ret void
}